target datalayout = "e-m:e-p270:32:32-p271:32:32-p272:64:64-i64:64-i128:128-f80:128-n8:16:32:64-S128"
target triple = "x86_64-pc-linux-gnu"

%struct.rb_data_type_struct = type { ptr, %struct.anon.19, ptr, ptr, i64 }
%struct.anon.19 = type { ptr, ptr, ptr, ptr, [1 x ptr] }
%struct.ccan_list_head = type { %struct.ccan_list_node }
%struct.ccan_list_node = type { ptr, ptr }
%struct.rb_execution_context_struct = type { ptr, i64, ptr, ptr, i32, i32, ptr, ptr, ptr, i64, i64, i64, ptr, i64, ptr, i64, i64, i8, i8, i64, %struct.anon.11 }
%struct.anon.11 = type { ptr, ptr, i64, [1 x %struct.__jmp_buf_tag] }
%struct.__jmp_buf_tag = type { [8 x i64], i32, %struct.__sigset_t }
%struct.__sigset_t = type { [16 x i64] }
%struct.rb_mutex_struct = type { ptr, ptr, %struct.ccan_list_head }

@mutex_data_type = internal constant %struct.rb_data_type_struct { ptr @.str.132, %struct.anon.19 { ptr null, ptr @mutex_free, ptr @mutex_memsize, ptr null, [1 x ptr] zeroinitializer }, ptr null, ptr null, i64 33 }, align 8
@thread_shield_data_type = internal constant %struct.rb_data_type_struct { ptr @.str.219, %struct.anon.19 { ptr @thread_shield_mark, ptr null, ptr null, ptr null, [1 x ptr] zeroinitializer }, ptr null, ptr null, i64 1 }, align 8
@ruby_current_ec = external thread_local global ptr, align 8

; Function Attrs: inlinehint nounwind sspstrong uwtable
define internal ptr @rb_current_execution_context(i1 noundef zeroext %0) #1 {
  %2 = alloca i8, align 1
  %3 = alloca ptr, align 8
  %4 = zext i1 %0 to i8
  store i8 %4, ptr %2, align 1, !tbaa !51
  call void @llvm.lifetime.start.p0(i64 8, ptr %3) #16
  %5 = call align 8 ptr @llvm.threadlocal.address.p0(ptr align 8 @ruby_current_ec)
  %6 = load ptr, ptr %5, align 8, !tbaa !7
  store ptr %6, ptr %3, align 8, !tbaa !7
  %7 = load ptr, ptr %3, align 8, !tbaa !7
  call void @llvm.lifetime.end.p0(i64 8, ptr %3) #16
  ret ptr %7
}

; Function Attrs: nounwind sspstrong uwtable
define internal ptr @mutex_ptr(i64 noundef %0) #0 {
  %2 = alloca i64, align 8
  %3 = alloca ptr, align 8
  store i64 %0, ptr %2, align 8, !tbaa !22
  call void @llvm.lifetime.start.p0(i64 8, ptr %3) #16
  %4 = load i64, ptr %2, align 8, !tbaa !22
  %5 = call ptr @rb_check_typeddata(i64 noundef %4, ptr noundef @mutex_data_type)
  store ptr %5, ptr %3, align 8, !tbaa !173
  %6 = load ptr, ptr %3, align 8, !tbaa !173
  call void @llvm.lifetime.end.p0(i64 8, ptr %3) #16
  ret ptr %6
}

; Function Attrs: nounwind sspstrong uwtable
define hidden zeroext i1 @rb_thread_shield_owned(i64 noundef %0) #0 {
  %2 = alloca i1, align 1
  %3 = alloca i64, align 8
  %4 = alloca i64, align 8
  %5 = alloca i32, align 4
  %6 = alloca ptr, align 8
  store i64 %0, ptr %3, align 8, !tbaa !22
  call void @llvm.lifetime.start.p0(i64 8, ptr %4) #16
  %7 = load i64, ptr %3, align 8, !tbaa !22
  %8 = call ptr @rb_check_typeddata(i64 noundef %7, ptr noundef @thread_shield_data_type)
  %9 = ptrtoint ptr %8 to i64
  store i64 %9, ptr %4, align 8, !tbaa !22
  %10 = load i64, ptr %4, align 8, !tbaa !22
  %11 = icmp ne i64 %10, 0
  br i1 %11, label %13, label %12

12:                                               ; preds = %1
  store i1 false, ptr %2, align 1
  store i32 1, ptr %5, align 4
  br label %23

13:                                               ; preds = %1
  call void @llvm.lifetime.start.p0(i64 8, ptr %6) #16
  %14 = load i64, ptr %4, align 8, !tbaa !22
  %15 = call ptr @mutex_ptr(i64 noundef %14)
  store ptr %15, ptr %6, align 8, !tbaa !173
  %16 = load ptr, ptr %6, align 8, !tbaa !173
  %17 = getelementptr inbounds nuw %struct.rb_mutex_struct, ptr %16, i32 0, i32 0
  %18 = load ptr, ptr %17, align 8, !tbaa !174
  %19 = call ptr @rb_current_execution_context(i1 noundef zeroext true)
  %20 = getelementptr inbounds nuw %struct.rb_execution_context_struct, ptr %19, i32 0, i32 6
  %21 = load ptr, ptr %20, align 8, !tbaa !176
  %22 = icmp eq ptr %18, %21
  store i1 %22, ptr %2, align 1
  store i32 1, ptr %5, align 4
  call void @llvm.lifetime.end.p0(i64 8, ptr %6) #16
  br label %23

23:                                               ; preds = %13, %12
  call void @llvm.lifetime.end.p0(i64 8, ptr %4) #16
  %24 = load i1, ptr %2, align 1
  ret i1 %24
}