; Function Attrs: nounwind sspstrong uwtable
define hidden zeroext i1 @rb_thread_shield_owned(i64 noundef %0) local_unnamed_addr #0 {
  %2 = tail call ptr @rb_check_typeddata(i64 noundef %0, ptr noundef nonnull @thread_shield_data_type) #17
  %.not = icmp eq ptr %2, null
  br i1 %.not, label %12, label %3

3:                                                ; preds = %1
  %4 = ptrtoint ptr %2 to i64
  %5 = tail call ptr @rb_check_typeddata(i64 noundef %4, ptr noundef nonnull @mutex_data_type) #17
  %6 = load ptr, ptr %5, align 8, !tbaa !174
  %7 = tail call align 8 ptr @llvm.threadlocal.address.p0(ptr align 8 @ruby_current_ec)
  %8 = load ptr, ptr %7, align 8, !tbaa !148
  %9 = getelementptr inbounds nuw i8, ptr %8, i64 40
  %10 = load ptr, ptr %9, align 8, !tbaa !176
  %11 = icmp eq ptr %6, %10
  br label %12

12:                                               ; preds = %1, %3
  %.0 = phi i1 [ %11, %3 ], [ false, %1 ]
  ret i1 %.0
}